-----BEGIN PRIVATE KEY-----
MIIEvgIBADANBgkqhkiG9w0BAQEFAASCBKgwggSkAgEAAoIBAQDXumDplnNrOaRJ
Os+KKFzgKV8cfz/UlIqT+oFWW2mjyxtV15HMoio7uiw1kA5Z54pnIIVUBNE1x+xk
1UC9FvBreQ4XKFFRCAdoK3Gr3gKdVkZegYlCYliRWt3FHqgzJBYPx+fpoIoEr0cZ
qEK8mTEhKuB+ptklyfhxZKuN2YFKEovCClQOTbuBpuhPiB5EBmvnkiSkCXbHpquR
FGBPJXrffSrimC7tO0sNtF8/VmC28jxIK2pgF55U6bTRm1V9nAUn6570IxtZ5Pli
Dn+LxDCfSXSrz/tCXIOc7SerEg7NovyPCfGhghOyhn6nEh5EgmKqU6rdOlc0Mwio
0jKkkK/tAgMBAAECggEBAI6iyNkphP7siddxby/mKCJ+uEhbSpT/8fCNvV6f6mVG
Mbi8Y8ZtoocDPZ/cs+B122j8c6tt0/Y/TeoNplRgCm7FB7AAFGQDbwJNV0dP72Kg
XL63301pQS46ak+fSY8m2P9uKcSrRRZ73gL04ctZbsaDVxPmtcTqmb4/1b5ghb+2
9JSRGExPnJwKQXD+ooMmC8TW1HWs9ZNjuqpZnLuOUeE1+bN/Xdaa5suPY/54/exJ
KEKwyFsVvMCo5It1FTIzRkWAHHOUdB2cyMqNaL/sts6LUGpJq/Vtg599uzCLdQrk
MnFqsTanIxOafF4zWcOZuDKSUeCNIuNFsJfBcbZaXIECgYEA8drv1yiy4CMeqxGU
UcW616WNGbL92pSQCeQPgQLHmKGlV5MGqcS9jK3qXJArilYcrkyyRmfT5Kv36fA8
x02d2Yc2m33F8UF1A7riQvOZ1hie4DLchBjDvCqF7iAkOlNPOKmtwIjqHEoDh8h2
sgp2lWmSs3YsAOo09aMm2kJUTkkCgYEA5FhDymZfm3jFFOJC/ajyYGq+uzrEabJu
StFc1YgW0LvApjyiIA0M90OnmwyTqhXVUKjT5B5Gd6qo7fKKMu1HQoWomG/oPNKy
CuzfajH/ckGmWygYaXAavwEnMPN1iUrMBJzyTqCjWLrt0305L9Sxk/HhbvYCPbW5
nVo19Xyz5IUCgYEAqSXQ9e6946pMSaJa1DHw8d8T5vRbPGMIthItkbHq/GGZLL1k
PJmfY+NCdIhUG0UMfA6h5EG7XUO0eIWPTGiJTFiXpXn6VTfNadVrZx3N6oF/pBeO
SEi1pEUtNBSAodYgIuXw4iYfbbeJ7o4SDYTp2KdkdWThc6ZZca4wfxdCtRkCgYAX
ykplz/yuCgsefeRU4UE/Yl+0yg6kpH5xNRbi+GbIIIeVykNp63IqYNYZhVntIpEy
8iQBZFYbKaCoCdj0LVx7Rcmm+CHOFHWQRdWRDtx6XvSiEq9YbOGcfNZEd1kLkMto
v6FPJ9Vc7TzSB/3pSdOmglDmaqMZItHP3xI4HWHwsQKBgAUVceCrM0tuPNRDDEh8
weK3uIWWhgTUQaytJCL6mHjhK8co2jsYQB/7y8YVbOE8JXLhPceoifPcBzw1rwUN
5d+ga+e+3hSv+W6M5i/cHVN/fP0azXdbNurET0KTS4Ikjvkhmi905Nr6KN9UU3/c
FnmjZd2Y/uvk5cQH1AGayGOC
-----END PRIVATE KEY-----
Certificate:
    Data:
        Version: 3 (0x2)
        Serial Number: 2 (0x2)
    Signature Algorithm: sha256WithRSAEncryption
        Issuer: CN=Kore Root CA, C=NL/emailAddress=none, O=Kore, OU=lab
        Validity
            Not Before: Dec 13 16:02:45 2018 GMT
            Not After : Dec  8 16:02:45 2038 GMT
        Subject: CN=Kore.net, C=NL, O=Kore, OU=lab
        Subject Public Key Info:
            Public Key Algorithm: rsaEncryption
                Public-Key: (2048 bit)
                Modulus:
                    00:d7:ba:60:e9:96:73:6b:39:a4:49:3a:cf:8a:28:
                    5c:e0:29:5f:1c:7f:3f:d4:94:8a:93:fa:81:56:5b:
                    69:a3:cb:1b:55:d7:91:cc:a2:2a:3b:ba:2c:35:90:
                    0e:59:e7:8a:67:20:85:54:04:d1:35:c7:ec:64:d5:
                    40:bd:16:f0:6b:79:0e:17:28:51:51:08:07:68:2b:
                    71:ab:de:02:9d:56:46:5e:81:89:42:62:58:91:5a:
                    dd:c5:1e:a8:33:24:16:0f:c7:e7:e9:a0:8a:04:af:
                    47:19:a8:42:bc:99:31:21:2a:e0:7e:a6:d9:25:c9:
                    f8:71:64:ab:8d:d9:81:4a:12:8b:c2:0a:54:0e:4d:
                    bb:81:a6:e8:4f:88:1e:44:06:6b:e7:92:24:a4:09:
                    76:c7:a6:ab:91:14:60:4f:25:7a:df:7d:2a:e2:98:
                    2e:ed:3b:4b:0d:b4:5f:3f:56:60:b6:f2:3c:48:2b:
                    6a:60:17:9e:54:e9:b4:d1:9b:55:7d:9c:05:27:eb:
                    9e:f4:23:1b:59:e4:f9:62:0e:7f:8b:c4:30:9f:49:
                    74:ab:cf:fb:42:5c:83:9c:ed:27:ab:12:0e:cd:a2:
                    fc:8f:09:f1:a1:82:13:b2:86:7e:a7:12:1e:44:82:
                    62:aa:53:aa:dd:3a:57:34:33:08:a8:d2:32:a4:90:
                    af:ed
                Exponent: 65537 (0x10001)
        X509v3 extensions:
            X509v3 Key Usage: 
                Digital Signature, Non Repudiation, Key Encipherment
            X509v3 Extended Key Usage: 
                TLS Web Client Authentication, TLS Web Server Authentication
            X509v3 Authority Key Identifier: 
                keyid:B2:EA:25:EA:AD:6E:AA:AD:FF:79:1B:09:7E:1D:50:87:EC:68:DB:3F

            X509v3 Subject Key Identifier: 
                89:61:3E:C4:61:FC:3A:78:F9:F4:A3:C9:70:39:2B:F2:2E:D3:32:54
            X509v3 Subject Alternative Name: 
                DNS:*, DNS:Kore.net
    Signature Algorithm: sha256WithRSAEncryption
         9b:15:b4:db:83:69:35:65:6c:cc:05:39:8f:36:5c:73:e3:59:
         4f:a4:b4:f2:7a:9c:a3:e7:69:d4:79:0f:f2:18:19:5f:a9:e6:
         b0:3d:32:c8:b1:a6:6e:c7:25:a7:98:2a:65:4a:09:9c:b7:91:
         fd:be:1a:73:89:83:f4:09:e8:9f:bb:d4:5b:17:d0:69:88:c5:
         70:90:06:fa:f6:4f:9a:64:76:14:d4:42:03:52:d9:7b:c2:7d:
         3e:6d:7e:4a:61:1e:f5:a5:df:bc:ee:72:92:0a:c5:2e:60:4d:
         49:92:0e:39:3b:0e:4f:0e:27:e8:8f:d8:f0:bf:85:fa:f2:94:
         94:77:9b:58:eb:31:d4:92:29:7e:e1:6a:61:fe:0c:b9:56:13:
         2b:8d:32:4b:cd:35:31:ee:f4:45:ca:e4:d5:ff:4b:a1:5d:b3:
         12:75:50:93:34:be:8d:78:7d:d0:8c:a0:2e:f7:af:0b:e8:86:
         fd:ba:3f:a3:44:3e:98:3d:cd:71:98:c4:98:1b:1a:7f:46:6a:
         99:e9:5d:84:fb:38:ad:94:68:dc:ec:b5:54:a1:84:10:c5:be:
         3f:d0:ec:ae:f4:fe:c8:be:69:92:a8:22:d3:d7:41:d8:9a:d3:
         e6:45:10:7a:45:db:14:f5:9a:90:70:59:67:2c:8d:f8:d6:8e:
         a5:9d:8d:a2
-----BEGIN CERTIFICATE-----
MIIDljCCAn6gAwIBAgIBAjANBgkqhkiG9w0BAQsFADBWMRUwEwYDVQQDDAxLb3Jl
IFJvb3QgQ0ExCzAJBgNVBAYTAk5MMRMwEQYJKoZIhvcNAQkBFgRub25lMQ0wCwYD
VQQKDARLb3JlMQwwCgYDVQQLDANsYWIwHhcNMTgxMjEzMTYwMjQ1WhcNMzgxMjA4
MTYwMjQ1WjA9MREwDwYDVQQDDAhLb3JlLm5ldDELMAkGA1UEBhMCTkwxDTALBgNV
BAoMBEtvcmUxDDAKBgNVBAsMA2xhYjCCASIwDQYJKoZIhvcNAQEBBQADggEPADCC
AQoCggEBANe6YOmWc2s5pEk6z4ooXOApXxx/P9SUipP6gVZbaaPLG1XXkcyiKju6
LDWQDlnnimcghVQE0TXH7GTVQL0W8Gt5DhcoUVEIB2grcaveAp1WRl6BiUJiWJFa
3cUeqDMkFg/H5+mgigSvRxmoQryZMSEq4H6m2SXJ+HFkq43ZgUoSi8IKVA5Nu4Gm
6E+IHkQGa+eSJKQJdsemq5EUYE8let99KuKYLu07Sw20Xz9WYLbyPEgramAXnlTp
tNGbVX2cBSfrnvQjG1nk+WIOf4vEMJ9JdKvP+0Jcg5ztJ6sSDs2i/I8J8aGCE7KG
fqcSHkSCYqpTqt06VzQzCKjSMqSQr+0CAwEAAaOBhzCBhDALBgNVHQ8EBAMCBeAw
HQYDVR0lBBYwFAYIKwYBBQUHAwIGCCsGAQUFBwMBMB8GA1UdIwQYMBaAFLLqJeqt
bqqt/3kbCX4dUIfsaNs/MB0GA1UdDgQWBBSJYT7EYfw6ePn0o8lwOSvyLtMyVDAW
BgNVHREEDzANggEqgghLb3JlLm5ldDANBgkqhkiG9w0BAQsFAAOCAQEAmxW024Np
NWVszAU5jzZcc+NZT6S08nqco+dp1HkP8hgZX6nmsD0yyLGmbsclp5gqZUoJnLeR
/b4ac4mD9Anon7vUWxfQaYjFcJAG+vZPmmR2FNRCA1LZe8J9Pm1+SmEe9aXfvO5y
kgrFLmBNSZIOOTsOTw4n6I/Y8L+F+vKUlHebWOsx1JIpfuFqYf4MuVYTK40yS801
Me70Rcrk1f9LoV2zEnVQkzS+jXh90IygLvevC+iG/bo/o0Q+mD3NcZjEmBsaf0Zq
meldhPs4rZRo3Oy1VKGEEMW+P9DsrvT+yL5pkqgi09dB2JrT5kUQekXbFPWakHBZ
ZyyN+NaOpZ2Nog==
-----END CERTIFICATE-----
